target datalayout = "e-m:e-p270:32:32-p271:32:32-p272:64:64-i64:64-i128:128-f80:128-n8:16:32:64-S128"
target triple = "x86_64-pc-linux-gnu"

%struct.evthread_lock_callbacks = type { i32, i32, ptr, ptr, ptr, ptr }
%struct.bufferevent_private = type { %struct.bufferevent, ptr, i8, i16, i16, i16, i32, i32, %struct.event_callback, i32, i32, ptr, i64, i64, ptr, %union.anon.7, ptr }
%struct.bufferevent = type { ptr, ptr, %struct.event, %struct.event, ptr, ptr, %struct.event_watermark, %struct.event_watermark, ptr, ptr, ptr, ptr, %struct.timeval, %struct.timeval, i16 }
%struct.event = type { %struct.event_callback, %union.anon.0, i32, i16, i16, ptr, %union.anon.2, %struct.timeval }
%union.anon.0 = type { %struct.anon.1 }
%struct.anon.1 = type { ptr, ptr }
%union.anon.2 = type { %struct.anon.3 }
%struct.anon.3 = type { %struct.anon.4, %struct.timeval }
%struct.anon.4 = type { ptr, ptr }
%struct.event_watermark = type { i64, i64 }
%struct.timeval = type { i64, i64 }
%struct.event_callback = type { %struct.anon, i16, i8, i8, %union.anon, ptr }
%struct.anon = type { ptr, ptr }
%union.anon = type { ptr }
%union.anon.7 = type { %struct.sockaddr_in6 }
%struct.sockaddr_in6 = type { i16, i16, i32, %struct.in6_addr, i32 }
%struct.in6_addr = type { %union.anon.8 }
%union.anon.8 = type { [4 x i32] }

@evthread_lock_fns_ = external global %struct.evthread_lock_callbacks, align 8

; Function Attrs: nounwind uwtable
define void @bufferevent_run_writecb_(ptr noundef %0, i32 noundef %1) #0 {
  %3 = alloca ptr, align 8
  %4 = alloca i32, align 4
  %5 = alloca ptr, align 8
  %6 = alloca i32, align 4
  store ptr %0, ptr %3, align 8
  store i32 %1, ptr %4, align 4
  call void @llvm.lifetime.start.p0(i64 8, ptr %5) #7
  %7 = load ptr, ptr %3, align 8
  %8 = getelementptr inbounds i8, ptr %7, i64 0
  store ptr %8, ptr %5, align 8
  %9 = load ptr, ptr %3, align 8
  %10 = getelementptr inbounds nuw %struct.bufferevent, ptr %9, i32 0, i32 9
  %11 = load ptr, ptr %10, align 8
  %12 = icmp eq ptr %11, null
  br i1 %12, label %13, label %14

13:                                               ; preds = %2
  store i32 1, ptr %6, align 4
  br label %52

14:                                               ; preds = %2
  %15 = load ptr, ptr %5, align 8
  %16 = getelementptr inbounds nuw %struct.bufferevent_private, ptr %15, i32 0, i32 9
  %17 = load i32, ptr %16, align 8
  %18 = load i32, ptr %4, align 4
  %19 = or i32 %17, %18
  %20 = and i32 %19, 4
  %21 = icmp ne i32 %20, 0
  br i1 %21, label %22, label %43

22:                                               ; preds = %14
  %23 = load ptr, ptr %5, align 8
  %24 = getelementptr inbounds nuw %struct.bufferevent_private, ptr %23, i32 0, i32 2
  %25 = load i8, ptr %24, align 8
  %26 = and i8 %25, -5
  %27 = or i8 %26, 4
  store i8 %27, ptr %24, align 8
  br label %28

28:                                               ; preds = %22
  %29 = load ptr, ptr %5, align 8
  %30 = getelementptr inbounds nuw %struct.bufferevent_private, ptr %29, i32 0, i32 0
  %31 = getelementptr inbounds nuw %struct.bufferevent, ptr %30, i32 0, i32 0
  %32 = load ptr, ptr %31, align 8
  %33 = load ptr, ptr %5, align 8
  %34 = getelementptr inbounds nuw %struct.bufferevent_private, ptr %33, i32 0, i32 8
  %35 = call i32 @event_deferred_cb_schedule_(ptr noundef %32, ptr noundef %34)
  %36 = icmp ne i32 %35, 0
  br i1 %36, label %37, label %40

37:                                               ; preds = %28
  %38 = load ptr, ptr %5, align 8
  %39 = getelementptr inbounds nuw %struct.bufferevent_private, ptr %38, i32 0, i32 0
  call void @bufferevent_incref(ptr noundef %39)
  br label %40

40:                                               ; preds = %37, %28
  br label %41

41:                                               ; preds = %40
  br label %42

42:                                               ; preds = %41
  br label %51

43:                                               ; preds = %14
  %44 = load ptr, ptr %3, align 8
  %45 = getelementptr inbounds nuw %struct.bufferevent, ptr %44, i32 0, i32 9
  %46 = load ptr, ptr %45, align 8
  %47 = load ptr, ptr %3, align 8
  %48 = load ptr, ptr %3, align 8
  %49 = getelementptr inbounds nuw %struct.bufferevent, ptr %48, i32 0, i32 11
  %50 = load ptr, ptr %49, align 8
  call void %46(ptr noundef %47, ptr noundef %50)
  br label %51

51:                                               ; preds = %43, %42
  store i32 0, ptr %6, align 4
  br label %52

52:                                               ; preds = %51, %13
  call void @llvm.lifetime.end.p0(i64 8, ptr %5) #7
  %53 = load i32, ptr %6, align 4
  switch i32 %53, label %55 [
    i32 0, label %54
    i32 1, label %54
  ]

54:                                               ; preds = %52, %52
  ret void

55:                                               ; preds = %52
  unreachable
}

; Function Attrs: inlinehint nounwind uwtable
define internal void @bufferevent_trigger_nolock_(ptr noundef %0, i16 noundef signext %1, i32 noundef %2) #3 {
  %4 = alloca ptr, align 8
  %5 = alloca i16, align 2
  %6 = alloca i32, align 4
  store ptr %0, ptr %4, align 8
  store i16 %1, ptr %5, align 2
  store i32 %2, ptr %6, align 4
  %7 = load i16, ptr %5, align 2
  %8 = sext i16 %7 to i32
  %9 = and i32 %8, 2
  %10 = icmp ne i32 %9, 0
  br i1 %10, label %11, label %28

11:                                               ; preds = %3
  %12 = load i32, ptr %6, align 4
  %13 = and i32 %12, 65536
  %14 = icmp ne i32 %13, 0
  br i1 %14, label %25, label %15

15:                                               ; preds = %11
  %16 = load ptr, ptr %4, align 8
  %17 = getelementptr inbounds nuw %struct.bufferevent, ptr %16, i32 0, i32 4
  %18 = load ptr, ptr %17, align 8
  %19 = call i64 @evbuffer_get_length(ptr noundef %18)
  %20 = load ptr, ptr %4, align 8
  %21 = getelementptr inbounds nuw %struct.bufferevent, ptr %20, i32 0, i32 6
  %22 = getelementptr inbounds nuw %struct.event_watermark, ptr %21, i32 0, i32 0
  %23 = load i64, ptr %22, align 8
  %24 = icmp uge i64 %19, %23
  br i1 %24, label %25, label %28

25:                                               ; preds = %15, %11
  %26 = load ptr, ptr %4, align 8
  %27 = load i32, ptr %6, align 4
  call void @bufferevent_run_readcb_(ptr noundef %26, i32 noundef %27)
  br label %28

28:                                               ; preds = %25, %15, %3
  %29 = load i16, ptr %5, align 2
  %30 = sext i16 %29 to i32
  %31 = and i32 %30, 4
  %32 = icmp ne i32 %31, 0
  br i1 %32, label %33, label %50

33:                                               ; preds = %28
  %34 = load i32, ptr %6, align 4
  %35 = and i32 %34, 65536
  %36 = icmp ne i32 %35, 0
  br i1 %36, label %47, label %37

37:                                               ; preds = %33
  %38 = load ptr, ptr %4, align 8
  %39 = getelementptr inbounds nuw %struct.bufferevent, ptr %38, i32 0, i32 5
  %40 = load ptr, ptr %39, align 8
  %41 = call i64 @evbuffer_get_length(ptr noundef %40)
  %42 = load ptr, ptr %4, align 8
  %43 = getelementptr inbounds nuw %struct.bufferevent, ptr %42, i32 0, i32 7
  %44 = getelementptr inbounds nuw %struct.event_watermark, ptr %43, i32 0, i32 0
  %45 = load i64, ptr %44, align 8
  %46 = icmp ule i64 %41, %45
  br i1 %46, label %47, label %50

47:                                               ; preds = %37, %33
  %48 = load ptr, ptr %4, align 8
  %49 = load i32, ptr %6, align 4
  call void @bufferevent_run_writecb_(ptr noundef %48, i32 noundef %49)
  br label %50

50:                                               ; preds = %47, %37, %28
  ret void
}

; Function Attrs: nounwind uwtable
define void @bufferevent_incref_and_lock_(ptr noundef %0) #0 {
  %2 = alloca ptr, align 8
  %3 = alloca ptr, align 8
  %4 = alloca ptr, align 8
  store ptr %0, ptr %2, align 8
  call void @llvm.lifetime.start.p0(i64 8, ptr %3) #7
  %5 = load ptr, ptr %2, align 8
  %6 = getelementptr inbounds i8, ptr %5, i64 0
  store ptr %6, ptr %3, align 8
  br label %7

7:                                                ; preds = %1
  call void @llvm.lifetime.start.p0(i64 8, ptr %4) #7
  %8 = load ptr, ptr %2, align 8
  %9 = getelementptr inbounds i8, ptr %8, i64 0
  store ptr %9, ptr %4, align 8
  br label %10

10:                                               ; preds = %7
  %11 = load ptr, ptr %4, align 8
  %12 = getelementptr inbounds nuw %struct.bufferevent_private, ptr %11, i32 0, i32 11
  %13 = load ptr, ptr %12, align 8
  %14 = icmp ne ptr %13, null
  br i1 %14, label %15, label %21

15:                                               ; preds = %10
  %16 = load ptr, ptr getelementptr inbounds nuw (%struct.evthread_lock_callbacks, ptr @evthread_lock_fns_, i32 0, i32 4), align 8
  %17 = load ptr, ptr %4, align 8
  %18 = getelementptr inbounds nuw %struct.bufferevent_private, ptr %17, i32 0, i32 11
  %19 = load ptr, ptr %18, align 8
  %20 = call i32 %16(i32 noundef 0, ptr noundef %19)
  br label %21

21:                                               ; preds = %15, %10
  br label %22

22:                                               ; preds = %21
  br label %23

23:                                               ; preds = %22
  call void @llvm.lifetime.end.p0(i64 8, ptr %4) #7
  br label %24

24:                                               ; preds = %23
  br label %25

25:                                               ; preds = %24
  %26 = load ptr, ptr %3, align 8
  %27 = getelementptr inbounds nuw %struct.bufferevent_private, ptr %26, i32 0, i32 10
  %28 = load i32, ptr %27, align 4
  %29 = add nsw i32 %28, 1
  store i32 %29, ptr %27, align 4
  call void @llvm.lifetime.end.p0(i64 8, ptr %3) #7
  ret void
}

; Function Attrs: nounwind uwtable
define void @bufferevent_trigger(ptr noundef %0, i16 noundef signext %1, i32 noundef %2) #0 {
  %4 = alloca ptr, align 8
  %5 = alloca i16, align 2
  %6 = alloca i32, align 4
  store ptr %0, ptr %4, align 8
  store i16 %1, ptr %5, align 2
  store i32 %2, ptr %6, align 4
  %7 = load ptr, ptr %4, align 8
  call void @bufferevent_incref_and_lock_(ptr noundef %7)
  %8 = load ptr, ptr %4, align 8
  %9 = load i16, ptr %5, align 2
  %10 = load i32, ptr %6, align 4
  %11 = and i32 %10, 65540
  call void @bufferevent_trigger_nolock_(ptr noundef %8, i16 noundef signext %9, i32 noundef %11)
  %12 = load ptr, ptr %4, align 8
  %13 = call i32 @bufferevent_decref_and_unlock_(ptr noundef %12)
  ret void
}

; Function Attrs: nounwind uwtable
define internal void @bufferevent_inbuf_wm_check(ptr noundef %0) #0 {
  %2 = alloca ptr, align 8
  store ptr %0, ptr %2, align 8
  %3 = load ptr, ptr %2, align 8
  %4 = getelementptr inbounds nuw %struct.bufferevent, ptr %3, i32 0, i32 6
  %5 = getelementptr inbounds nuw %struct.event_watermark, ptr %4, i32 0, i32 1
  %6 = load i64, ptr %5, align 8
  %7 = icmp ne i64 %6, 0
  br i1 %7, label %9, label %8

8:                                                ; preds = %1
  br label %30

9:                                                ; preds = %1
  %10 = load ptr, ptr %2, align 8
  %11 = getelementptr inbounds nuw %struct.bufferevent, ptr %10, i32 0, i32 14
  %12 = load i16, ptr %11, align 8
  %13 = sext i16 %12 to i32
  %14 = and i32 %13, 2
  %15 = icmp ne i32 %14, 0
  br i1 %15, label %17, label %16

16:                                               ; preds = %9
  br label %30

17:                                               ; preds = %9
  %18 = load ptr, ptr %2, align 8
  %19 = getelementptr inbounds nuw %struct.bufferevent, ptr %18, i32 0, i32 4
  %20 = load ptr, ptr %19, align 8
  %21 = call i64 @evbuffer_get_length(ptr noundef %20)
  %22 = load ptr, ptr %2, align 8
  %23 = getelementptr inbounds nuw %struct.bufferevent, ptr %22, i32 0, i32 6
  %24 = getelementptr inbounds nuw %struct.event_watermark, ptr %23, i32 0, i32 1
  %25 = load i64, ptr %24, align 8
  %26 = icmp ult i64 %21, %25
  br i1 %26, label %27, label %28

27:                                               ; preds = %17
  br label %30

28:                                               ; preds = %17
  %29 = load ptr, ptr %2, align 8
  call void @bufferevent_trigger(ptr noundef %29, i16 noundef signext 2, i32 noundef 4)
  br label %30

30:                                               ; preds = %28, %27, %16, %8
  ret void
}

; Function Attrs: nounwind uwtable
define void @bufferevent_incref(ptr noundef %0) #0 {
  %2 = alloca ptr, align 8
  %3 = alloca ptr, align 8
  %4 = alloca ptr, align 8
  %5 = alloca ptr, align 8
  store ptr %0, ptr %2, align 8
  call void @llvm.lifetime.start.p0(i64 8, ptr %3) #7
  %6 = load ptr, ptr %2, align 8
  %7 = getelementptr inbounds i8, ptr %6, i64 0
  store ptr %7, ptr %3, align 8
  br label %8

8:                                                ; preds = %1
  call void @llvm.lifetime.start.p0(i64 8, ptr %4) #7
  %9 = load ptr, ptr %2, align 8
  %10 = getelementptr inbounds i8, ptr %9, i64 0
  store ptr %10, ptr %4, align 8
  br label %11

11:                                               ; preds = %8
  %12 = load ptr, ptr %4, align 8
  %13 = getelementptr inbounds nuw %struct.bufferevent_private, ptr %12, i32 0, i32 11
  %14 = load ptr, ptr %13, align 8
  %15 = icmp ne ptr %14, null
  br i1 %15, label %16, label %22

16:                                               ; preds = %11
  %17 = load ptr, ptr getelementptr inbounds nuw (%struct.evthread_lock_callbacks, ptr @evthread_lock_fns_, i32 0, i32 4), align 8
  %18 = load ptr, ptr %4, align 8
  %19 = getelementptr inbounds nuw %struct.bufferevent_private, ptr %18, i32 0, i32 11
  %20 = load ptr, ptr %19, align 8
  %21 = call i32 %17(i32 noundef 0, ptr noundef %20)
  br label %22

22:                                               ; preds = %16, %11
  br label %23

23:                                               ; preds = %22
  br label %24

24:                                               ; preds = %23
  call void @llvm.lifetime.end.p0(i64 8, ptr %4) #7
  br label %25

25:                                               ; preds = %24
  br label %26

26:                                               ; preds = %25
  %27 = load ptr, ptr %3, align 8
  %28 = getelementptr inbounds nuw %struct.bufferevent_private, ptr %27, i32 0, i32 10
  %29 = load i32, ptr %28, align 4
  %30 = add nsw i32 %29, 1
  store i32 %30, ptr %28, align 4
  br label %31

31:                                               ; preds = %26
  call void @llvm.lifetime.start.p0(i64 8, ptr %5) #7
  %32 = load ptr, ptr %2, align 8
  %33 = getelementptr inbounds i8, ptr %32, i64 0
  store ptr %33, ptr %5, align 8
  br label %34

34:                                               ; preds = %31
  %35 = load ptr, ptr %5, align 8
  %36 = getelementptr inbounds nuw %struct.bufferevent_private, ptr %35, i32 0, i32 11
  %37 = load ptr, ptr %36, align 8
  %38 = icmp ne ptr %37, null
  br i1 %38, label %39, label %45

39:                                               ; preds = %34
  %40 = load ptr, ptr getelementptr inbounds nuw (%struct.evthread_lock_callbacks, ptr @evthread_lock_fns_, i32 0, i32 5), align 8
  %41 = load ptr, ptr %5, align 8
  %42 = getelementptr inbounds nuw %struct.bufferevent_private, ptr %41, i32 0, i32 11
  %43 = load ptr, ptr %42, align 8
  %44 = call i32 %40(i32 noundef 0, ptr noundef %43)
  br label %45

45:                                               ; preds = %39, %34
  br label %46

46:                                               ; preds = %45
  br label %47

47:                                               ; preds = %46
  call void @llvm.lifetime.end.p0(i64 8, ptr %5) #7
  br label %48

48:                                               ; preds = %47
  br label %49

49:                                               ; preds = %48
  call void @llvm.lifetime.end.p0(i64 8, ptr %3) #7
  ret void
}

; Function Attrs: nounwind uwtable
define void @bufferevent_run_readcb_(ptr noundef %0, i32 noundef %1) #0 {
  %3 = alloca ptr, align 8
  %4 = alloca i32, align 4
  %5 = alloca ptr, align 8
  %6 = alloca i32, align 4
  store ptr %0, ptr %3, align 8
  store i32 %1, ptr %4, align 4
  call void @llvm.lifetime.start.p0(i64 8, ptr %5) #7
  %7 = load ptr, ptr %3, align 8
  %8 = getelementptr inbounds i8, ptr %7, i64 0
  store ptr %8, ptr %5, align 8
  %9 = load ptr, ptr %3, align 8
  %10 = getelementptr inbounds nuw %struct.bufferevent, ptr %9, i32 0, i32 8
  %11 = load ptr, ptr %10, align 8
  %12 = icmp eq ptr %11, null
  br i1 %12, label %13, label %14

13:                                               ; preds = %2
  store i32 1, ptr %6, align 4
  br label %53

14:                                               ; preds = %2
  %15 = load ptr, ptr %5, align 8
  %16 = getelementptr inbounds nuw %struct.bufferevent_private, ptr %15, i32 0, i32 9
  %17 = load i32, ptr %16, align 8
  %18 = load i32, ptr %4, align 4
  %19 = or i32 %17, %18
  %20 = and i32 %19, 4
  %21 = icmp ne i32 %20, 0
  br i1 %21, label %22, label %43

22:                                               ; preds = %14
  %23 = load ptr, ptr %5, align 8
  %24 = getelementptr inbounds nuw %struct.bufferevent_private, ptr %23, i32 0, i32 2
  %25 = load i8, ptr %24, align 8
  %26 = and i8 %25, -3
  %27 = or i8 %26, 2
  store i8 %27, ptr %24, align 8
  br label %28

28:                                               ; preds = %22
  %29 = load ptr, ptr %5, align 8
  %30 = getelementptr inbounds nuw %struct.bufferevent_private, ptr %29, i32 0, i32 0
  %31 = getelementptr inbounds nuw %struct.bufferevent, ptr %30, i32 0, i32 0
  %32 = load ptr, ptr %31, align 8
  %33 = load ptr, ptr %5, align 8
  %34 = getelementptr inbounds nuw %struct.bufferevent_private, ptr %33, i32 0, i32 8
  %35 = call i32 @event_deferred_cb_schedule_(ptr noundef %32, ptr noundef %34)
  %36 = icmp ne i32 %35, 0
  br i1 %36, label %37, label %40

37:                                               ; preds = %28
  %38 = load ptr, ptr %5, align 8
  %39 = getelementptr inbounds nuw %struct.bufferevent_private, ptr %38, i32 0, i32 0
  call void @bufferevent_incref(ptr noundef %39)
  br label %40

40:                                               ; preds = %37, %28
  br label %41

41:                                               ; preds = %40
  br label %42

42:                                               ; preds = %41
  br label %52

43:                                               ; preds = %14
  %44 = load ptr, ptr %3, align 8
  %45 = getelementptr inbounds nuw %struct.bufferevent, ptr %44, i32 0, i32 8
  %46 = load ptr, ptr %45, align 8
  %47 = load ptr, ptr %3, align 8
  %48 = load ptr, ptr %3, align 8
  %49 = getelementptr inbounds nuw %struct.bufferevent, ptr %48, i32 0, i32 11
  %50 = load ptr, ptr %49, align 8
  call void %46(ptr noundef %47, ptr noundef %50)
  %51 = load ptr, ptr %3, align 8
  call void @bufferevent_inbuf_wm_check(ptr noundef %51)
  br label %52

52:                                               ; preds = %43, %42
  store i32 0, ptr %6, align 4
  br label %53

53:                                               ; preds = %52, %13
  call void @llvm.lifetime.end.p0(i64 8, ptr %5) #7
  %54 = load i32, ptr %6, align 4
  switch i32 %54, label %56 [
    i32 0, label %55
    i32 1, label %55
  ]

55:                                               ; preds = %53, %53
  ret void

56:                                               ; preds = %53
  unreachable
}